target datalayout = "e-m:e-p270:32:32-p271:32:32-p272:64:64-i64:64-i128:128-f80:128-n8:16:32:64-S128"
target triple = "x86_64-pc-linux-gnu"

%class.QString = type { %struct.QArrayDataPointer }
%struct.QArrayDataPointer = type { ptr, ptr, i64 }
%class.QDropEvent = type { %class.QEvent, %class.QPointF, %class.QFlags.0, %class.QFlags.1, %class.QFlags.2, i32, i32, ptr }
%class.QEvent = type { ptr, i16, i8, i8, i8, i8, i16 }
%class.QPointF = type { double, double }
%class.QFlags.0 = type { i32 }
%class.QFlags.1 = type { i32 }
%class.QFlags.2 = type { i32 }

@_ZN17WiresharkMimeData21DisplayFilterMimeTypeE = external global %class.QString, align 8

; Function Attrs: mustprogress nounwind uwtable
define linkonce_odr void @_ZN6QEvent6acceptEv(ptr noundef nonnull align 8 dereferenceable(16) %0) #2 comdat align 2 {
  %2 = alloca ptr, align 8
  store ptr %0, ptr %2, align 8
  %3 = load ptr, ptr %2, align 8
  %4 = getelementptr inbounds %class.QEvent, ptr %3, i32 0, i32 4
  store i8 1, ptr %4, align 4
  ret void
}

; Function Attrs: mustprogress uwtable
define linkonce_odr void @_ZN10QDropEvent20acceptProposedActionEv(ptr noundef nonnull align 8 dereferenceable(64) %0) #0 comdat align 2 {
  %2 = alloca ptr, align 8
  store ptr %0, ptr %2, align 8
  %3 = load ptr, ptr %2, align 8
  %4 = getelementptr inbounds %class.QDropEvent, ptr %3, i32 0, i32 6
  %5 = load i32, ptr %4, align 8
  %6 = getelementptr inbounds %class.QDropEvent, ptr %3, i32 0, i32 5
  store i32 %5, ptr %6, align 4
  call void @_ZN6QEvent6acceptEv(ptr noundef nonnull align 8 dereferenceable(16) %3)
  ret void
}

; Function Attrs: mustprogress uwtable
define linkonce_odr void @_ZN14QDragMoveEvent6acceptEv(ptr noundef nonnull align 8 dereferenceable(80) %0) #0 comdat align 2 {
  %2 = alloca ptr, align 8
  store ptr %0, ptr %2, align 8
  %3 = load ptr, ptr %2, align 8
  call void @_ZN6QEvent6acceptEv(ptr noundef nonnull align 8 dereferenceable(16) %3)
  ret void
}

; Function Attrs: mustprogress nounwind uwtable
define linkonce_odr noundef ptr @_ZNK10QDropEvent8mimeDataEv(ptr noundef nonnull align 8 dereferenceable(64) %0) #2 comdat align 2 {
  %2 = alloca ptr, align 8
  store ptr %0, ptr %2, align 8
  %3 = load ptr, ptr %2, align 8
  %4 = getelementptr inbounds %class.QDropEvent, ptr %3, i32 0, i32 7
  %5 = load ptr, ptr %4, align 8
  ret ptr %5
}

; Function Attrs: mustprogress uwtable
define void @_ZN16PacketListHeader13dragMoveEventEP14QDragMoveEvent(ptr noundef nonnull align 8 dereferenceable(44) %0, ptr noundef %1) unnamed_addr #0 align 2 {
  %3 = alloca ptr, align 8
  %4 = alloca ptr, align 8
  store ptr %0, ptr %3, align 8
  store ptr %1, ptr %4, align 8
  %5 = load ptr, ptr %3, align 8
  %6 = load ptr, ptr %4, align 8
  %7 = icmp ne ptr %6, null
  br i1 %7, label %8, label %12

8:                                                ; preds = %2
  %9 = load ptr, ptr %4, align 8
  %10 = call noundef ptr @_ZNK10QDropEvent8mimeDataEv(ptr noundef nonnull align 8 dereferenceable(64) %9)
  %11 = icmp ne ptr %10, null
  br i1 %11, label %13, label %12

12:                                               ; preds = %8, %2
  br label %32

13:                                               ; preds = %8
  %14 = load ptr, ptr %4, align 8
  %15 = call noundef ptr @_ZNK10QDropEvent8mimeDataEv(ptr noundef nonnull align 8 dereferenceable(64) %14)
  %16 = load ptr, ptr %15, align 8
  %17 = getelementptr inbounds ptr, ptr %16, i64 12
  %18 = load ptr, ptr %17, align 8
  %19 = call noundef zeroext i1 %18(ptr noundef nonnull align 8 dereferenceable(16) %15, ptr noundef nonnull align 8 dereferenceable(24) @_ZN17WiresharkMimeData21DisplayFilterMimeTypeE)
  br i1 %19, label %20, label %30

20:                                               ; preds = %13
  %21 = load ptr, ptr %4, align 8
  %22 = call noundef ptr @_ZNK10QDropEvent6sourceEv(ptr noundef nonnull align 8 dereferenceable(64) %21)
  %23 = icmp ne ptr %22, %5
  br i1 %23, label %24, label %27

24:                                               ; preds = %20
  %25 = load ptr, ptr %4, align 8
  call void @_ZN10QDropEvent13setDropActionEN2Qt10DropActionE(ptr noundef nonnull align 8 dereferenceable(64) %25, i32 noundef 1)
  %26 = load ptr, ptr %4, align 8
  call void @_ZN14QDragMoveEvent6acceptEv(ptr noundef nonnull align 8 dereferenceable(80) %26)
  br label %29

27:                                               ; preds = %20
  %28 = load ptr, ptr %4, align 8
  call void @_ZN10QDropEvent20acceptProposedActionEv(ptr noundef nonnull align 8 dereferenceable(64) %28)
  br label %29

29:                                               ; preds = %27, %24
  br label %32

30:                                               ; preds = %13
  %31 = load ptr, ptr %4, align 8
  call void @_ZN17QAbstractItemView13dragMoveEventEP14QDragMoveEvent(ptr noundef nonnull align 8 dereferenceable(40) %5, ptr noundef %31)
  br label %32

32:                                               ; preds = %30, %29, %12
  ret void
}