; Function Attrs: mustprogress uwtable
define void @_ZN16PacketListHeader13dragMoveEventEP14QDragMoveEvent(ptr noundef nonnull align 8 dereferenceable(44) %0, ptr noundef %1) unnamed_addr #0 align 2 {
  %.not = icmp eq ptr %1, null
  br i1 %.not, label %21, label %3

3:                                                ; preds = %2
  %4 = getelementptr inbounds i8, ptr %1, i64 56
  %5 = load ptr, ptr %4, align 8
  %.not9 = icmp eq ptr %5, null
  br i1 %.not9, label %21, label %6

6:                                                ; preds = %3
  %7 = load ptr, ptr %5, align 8
  %8 = getelementptr inbounds i8, ptr %7, i64 96
  %9 = load ptr, ptr %8, align 8
  %10 = tail call noundef zeroext i1 %9(ptr noundef nonnull align 8 dereferenceable(16) %5, ptr noundef nonnull align 8 dereferenceable(24) @_ZN17WiresharkMimeData21DisplayFilterMimeTypeE)
  br i1 %10, label %11, label %20

11:                                               ; preds = %6
  %12 = tail call noundef ptr @_ZNK10QDropEvent6sourceEv(ptr noundef nonnull align 8 dereferenceable(64) %1)
  %.not10 = icmp eq ptr %12, %0
  br i1 %.not10, label %15, label %13

13:                                               ; preds = %11
  tail call void @_ZN10QDropEvent13setDropActionEN2Qt10DropActionE(ptr noundef nonnull align 8 dereferenceable(64) %1, i32 noundef 1)
  %14 = getelementptr inbounds i8, ptr %1, i64 12
  store i8 1, ptr %14, align 4
  br label %21

15:                                               ; preds = %11
  %16 = getelementptr inbounds i8, ptr %1, i64 48
  %17 = load i32, ptr %16, align 8
  %18 = getelementptr inbounds i8, ptr %1, i64 44
  store i32 %17, ptr %18, align 4
  %19 = getelementptr inbounds i8, ptr %1, i64 12
  store i8 1, ptr %19, align 4
  br label %21

20:                                               ; preds = %6
  tail call void @_ZN17QAbstractItemView13dragMoveEventEP14QDragMoveEvent(ptr noundef nonnull align 8 dereferenceable(40) %0, ptr noundef nonnull %1)
  br label %21

21:                                               ; preds = %13, %15, %2, %3, %20
  ret void
}